target datalayout = "e-m:e-p270:32:32-p271:32:32-p272:64:64-i64:64-i128:128-f80:128-n8:16:32:64-S128"
target triple = "x86_64-pc-linux-gnu"

%struct.Gia_Man_t_ = type { ptr, ptr, i32, i32, i32, i32, ptr, ptr, i32, i32, i32, ptr, ptr, %struct.Vec_Int_t_, %struct.Vec_Int_t_, i32, i32, i32, %struct.Vec_Int_t_, ptr, ptr, ptr, i32, i32, i32, i32, ptr, ptr, ptr, ptr, ptr, i32, i32, ptr, i32, ptr, ptr, ptr, ptr, ptr, ptr, ptr, ptr, ptr, ptr, ptr, ptr, ptr, ptr, ptr, ptr, ptr, ptr, %struct.Vec_Int_t_, %struct.Vec_Int_t_, ptr, ptr, ptr, ptr, ptr, ptr, ptr, ptr, ptr, ptr, ptr, ptr, ptr, ptr, ptr, ptr, ptr, ptr, ptr, ptr, ptr, i32, float, float, ptr, ptr, i32, ptr, ptr, ptr, ptr, ptr, ptr, ptr, ptr, ptr, ptr, ptr, ptr, ptr, ptr, ptr, i64, i64, ptr, ptr, i32, i32, i32, i32, i32, i32, i32, i32, i32, i32, i32, i32, ptr, ptr, ptr, ptr, ptr, ptr, ptr, ptr, i32, i32, i32, ptr, i32, i32, ptr, ptr, ptr, ptr, ptr, ptr, i32, i32, ptr, %struct.Vec_Int_t_, %struct.Vec_Int_t_, %struct.Vec_Int_t_, ptr, ptr, ptr, i32, i32, i32, i32, ptr, ptr, ptr, ptr, ptr }
%struct.Vec_Int_t_ = type { i32, i32, ptr }

@.str.6 = private unnamed_addr constant [3 x i8] c"wb\00", align 1
@.str.23 = private unnamed_addr constant [3 x i8] c"{\0A\00", align 1
@.str.24 = private unnamed_addr constant [20 x i8] c"    \22name\22 : \22%s\22,\0A\00", align 1
@.str.25 = private unnamed_addr constant [19 x i8] c"    \22input\22 : %d,\0A\00", align 1
@.str.26 = private unnamed_addr constant [20 x i8] c"    \22output\22 : %d,\0A\00", align 1
@.str.27 = private unnamed_addr constant [17 x i8] c"    \22and\22 : %d,\0A\00", align 1
@.str.28 = private unnamed_addr constant [19 x i8] c"    \22level\22 : %d,\0A\00", align 1
@.str.29 = private unnamed_addr constant [19 x i8] c"    \22total\22 : %d,\0A\00", align 1
@.str.30 = private unnamed_addr constant [21 x i8] c"    \22correct\22 : %d,\0A\00", align 1
@.str.31 = private unnamed_addr constant [18 x i8] c"    \22guess\22 : %d\0A\00", align 1
@.str.32 = private unnamed_addr constant [3 x i8] c"}\0A\00", align 1

; Function Attrs: inlinehint nounwind uwtable
define internal i32 @Vec_IntSize(ptr noundef %0) #4 {
  %2 = alloca ptr, align 8
  store ptr %0, ptr %2, align 8, !tbaa !73
  %3 = load ptr, ptr %2, align 8, !tbaa !73
  %4 = getelementptr inbounds nuw %struct.Vec_Int_t_, ptr %3, i32 0, i32 1
  %5 = load i32, ptr %4, align 4, !tbaa !74
  ret i32 %5
}

; Function Attrs: inlinehint nounwind uwtable
define internal i32 @Gia_ManAndNum(ptr noundef %0) #4 {
  %2 = alloca ptr, align 8
  store ptr %0, ptr %2, align 8, !tbaa !12
  %3 = load ptr, ptr %2, align 8, !tbaa !12
  %4 = getelementptr inbounds nuw %struct.Gia_Man_t_, ptr %3, i32 0, i32 4
  %5 = load i32, ptr %4, align 8, !tbaa !60
  %6 = load ptr, ptr %2, align 8, !tbaa !12
  %7 = getelementptr inbounds nuw %struct.Gia_Man_t_, ptr %6, i32 0, i32 11
  %8 = load ptr, ptr %7, align 8, !tbaa !23
  %9 = call i32 @Vec_IntSize(ptr noundef %8)
  %10 = sub nsw i32 %5, %9
  %11 = load ptr, ptr %2, align 8, !tbaa !12
  %12 = getelementptr inbounds nuw %struct.Gia_Man_t_, ptr %11, i32 0, i32 12
  %13 = load ptr, ptr %12, align 8, !tbaa !46
  %14 = call i32 @Vec_IntSize(ptr noundef %13)
  %15 = sub nsw i32 %10, %14
  %16 = sub nsw i32 %15, 1
  ret i32 %16
}

; Function Attrs: inlinehint nounwind uwtable
define internal i32 @Gia_ManCoNum(ptr noundef %0) #4 {
  %2 = alloca ptr, align 8
  store ptr %0, ptr %2, align 8, !tbaa !12
  %3 = load ptr, ptr %2, align 8, !tbaa !12
  %4 = getelementptr inbounds nuw %struct.Gia_Man_t_, ptr %3, i32 0, i32 12
  %5 = load ptr, ptr %4, align 8, !tbaa !46
  %6 = call i32 @Vec_IntSize(ptr noundef %5)
  ret i32 %6
}

; Function Attrs: inlinehint nounwind uwtable
define internal i32 @Gia_ManCiNum(ptr noundef %0) #4 {
  %2 = alloca ptr, align 8
  store ptr %0, ptr %2, align 8, !tbaa !12
  %3 = load ptr, ptr %2, align 8, !tbaa !12
  %4 = getelementptr inbounds nuw %struct.Gia_Man_t_, ptr %3, i32 0, i32 11
  %5 = load ptr, ptr %4, align 8, !tbaa !23
  %6 = call i32 @Vec_IntSize(ptr noundef %5)
  ret i32 %6
}

; Function Attrs: nounwind uwtable
define void @Gia_ManSimLogStats(ptr noundef %0, ptr noundef %1, i32 noundef %2, i32 noundef %3, i32 noundef %4) #0 {
  %6 = alloca ptr, align 8
  %7 = alloca ptr, align 8
  %8 = alloca i32, align 4
  %9 = alloca i32, align 4
  %10 = alloca i32, align 4
  %11 = alloca ptr, align 8
  store ptr %0, ptr %6, align 8, !tbaa !12
  store ptr %1, ptr %7, align 8, !tbaa !48
  store i32 %2, ptr %8, align 4, !tbaa !10
  store i32 %3, ptr %9, align 4, !tbaa !10
  store i32 %4, ptr %10, align 4, !tbaa !10
  call void @llvm.lifetime.start.p0(i64 8, ptr %11) #15
  %12 = load ptr, ptr %7, align 8, !tbaa !48
  %13 = call noalias ptr @fopen(ptr noundef %12, ptr noundef @.str.6)
  store ptr %13, ptr %11, align 8, !tbaa !54
  %14 = load ptr, ptr %11, align 8, !tbaa !54
  %15 = call i32 (ptr, ptr, ...) @fprintf(ptr noundef %14, ptr noundef @.str.23) #15
  %16 = load ptr, ptr %11, align 8, !tbaa !54
  %17 = load ptr, ptr %6, align 8, !tbaa !12
  %18 = getelementptr inbounds nuw %struct.Gia_Man_t_, ptr %17, i32 0, i32 0
  %19 = load ptr, ptr %18, align 8, !tbaa !84
  %20 = call i32 (ptr, ptr, ...) @fprintf(ptr noundef %16, ptr noundef @.str.24, ptr noundef %19) #15
  %21 = load ptr, ptr %11, align 8, !tbaa !54
  %22 = load ptr, ptr %6, align 8, !tbaa !12
  %23 = call i32 @Gia_ManCiNum(ptr noundef %22)
  %24 = call i32 (ptr, ptr, ...) @fprintf(ptr noundef %21, ptr noundef @.str.25, i32 noundef %23) #15
  %25 = load ptr, ptr %11, align 8, !tbaa !54
  %26 = load ptr, ptr %6, align 8, !tbaa !12
  %27 = call i32 @Gia_ManCoNum(ptr noundef %26)
  %28 = call i32 (ptr, ptr, ...) @fprintf(ptr noundef %25, ptr noundef @.str.26, i32 noundef %27) #15
  %29 = load ptr, ptr %11, align 8, !tbaa !54
  %30 = load ptr, ptr %6, align 8, !tbaa !12
  %31 = call i32 @Gia_ManAndNum(ptr noundef %30)
  %32 = call i32 (ptr, ptr, ...) @fprintf(ptr noundef %29, ptr noundef @.str.27, i32 noundef %31) #15
  %33 = load ptr, ptr %11, align 8, !tbaa !54
  %34 = load ptr, ptr %6, align 8, !tbaa !12
  %35 = call i32 @Gia_ManLevelNum(ptr noundef %34)
  %36 = call i32 (ptr, ptr, ...) @fprintf(ptr noundef %33, ptr noundef @.str.28, i32 noundef %35) #15
  %37 = load ptr, ptr %11, align 8, !tbaa !54
  %38 = load i32, ptr %8, align 4, !tbaa !10
  %39 = call i32 (ptr, ptr, ...) @fprintf(ptr noundef %37, ptr noundef @.str.29, i32 noundef %38) #15
  %40 = load ptr, ptr %11, align 8, !tbaa !54
  %41 = load i32, ptr %9, align 4, !tbaa !10
  %42 = call i32 (ptr, ptr, ...) @fprintf(ptr noundef %40, ptr noundef @.str.30, i32 noundef %41) #15
  %43 = load ptr, ptr %11, align 8, !tbaa !54
  %44 = load i32, ptr %10, align 4, !tbaa !10
  %45 = call i32 (ptr, ptr, ...) @fprintf(ptr noundef %43, ptr noundef @.str.31, i32 noundef %44) #15
  %46 = load ptr, ptr %11, align 8, !tbaa !54
  %47 = call i32 (ptr, ptr, ...) @fprintf(ptr noundef %46, ptr noundef @.str.32) #15
  %48 = load ptr, ptr %11, align 8, !tbaa !54
  %49 = call i32 @fclose(ptr noundef %48)
  call void @llvm.lifetime.end.p0(i64 8, ptr %11) #15
  ret void
}