; Function Attrs: nounwind uwtable
define void @Gia_ManSimLogStats(ptr noundef %0, ptr noundef readonly captures(none) %1, i32 noundef %2, i32 noundef %3, i32 noundef %4) local_unnamed_addr #0 {
  %6 = tail call noalias ptr @fopen(ptr noundef %1, ptr noundef nonnull @.str.6)
  %7 = tail call i64 @fwrite(ptr nonnull @.str.23, i64 2, i64 1, ptr %6)
  %8 = load ptr, ptr %0, align 8, !tbaa !71
  %9 = tail call i32 (ptr, ptr, ...) @fprintf(ptr noundef %6, ptr noundef nonnull @.str.24, ptr noundef %8) #21
  %10 = getelementptr i8, ptr %0, i64 64
  %.val = load ptr, ptr %10, align 8, !tbaa !22
  %11 = getelementptr i8, ptr %.val, i64 4
  %.val.val = load i32, ptr %11, align 4, !tbaa !41
  %12 = tail call i32 (ptr, ptr, ...) @fprintf(ptr noundef %6, ptr noundef nonnull @.str.25, i32 noundef %.val.val) #21
  %13 = getelementptr i8, ptr %0, i64 72
  %.val19 = load ptr, ptr %13, align 8, !tbaa !45
  %14 = getelementptr i8, ptr %.val19, i64 4
  %.val19.val = load i32, ptr %14, align 4, !tbaa !41
  %15 = tail call i32 (ptr, ptr, ...) @fprintf(ptr noundef %6, ptr noundef nonnull @.str.26, i32 noundef %.val19.val) #21
  %16 = getelementptr inbounds nuw i8, ptr %0, i64 24
  %17 = load i32, ptr %16, align 8, !tbaa !55
  %18 = load ptr, ptr %10, align 8, !tbaa !22
  %19 = getelementptr i8, ptr %18, i64 4
  %.val3.i = load i32, ptr %19, align 4, !tbaa !41
  %20 = load ptr, ptr %13, align 8, !tbaa !45
  %21 = getelementptr i8, ptr %20, i64 4
  %.val.i = load i32, ptr %21, align 4, !tbaa !41
  %22 = add i32 %.val.i, %.val3.i
  %23 = xor i32 %22, -1
  %24 = add i32 %17, %23
  %25 = tail call i32 (ptr, ptr, ...) @fprintf(ptr noundef %6, ptr noundef nonnull @.str.27, i32 noundef %24) #21
  %26 = tail call i32 @Gia_ManLevelNum(ptr noundef nonnull %0) #21
  %27 = tail call i32 (ptr, ptr, ...) @fprintf(ptr noundef %6, ptr noundef nonnull @.str.28, i32 noundef %26) #21
  %28 = tail call i32 (ptr, ptr, ...) @fprintf(ptr noundef %6, ptr noundef nonnull @.str.29, i32 noundef %2) #21
  %29 = tail call i32 (ptr, ptr, ...) @fprintf(ptr noundef %6, ptr noundef nonnull @.str.30, i32 noundef %3) #21
  %30 = tail call i32 (ptr, ptr, ...) @fprintf(ptr noundef %6, ptr noundef nonnull @.str.31, i32 noundef %4) #21
  %31 = tail call i64 @fwrite(ptr nonnull @.str.32, i64 2, i64 1, ptr %6)
  %32 = tail call i32 @fclose(ptr noundef %6)
  ret void
}